target datalayout = "e-m:e-p270:32:32-p271:32:32-p272:64:64-i64:64-i128:128-f80:128-n8:16:32:64-S128"
target triple = "x86_64-unknown-linux-gnu"

%"class.icu_75::SimpleTimeZone" = type { %"class.icu_75::BasicTimeZone", i8, i8, i8, i32, i32, i32, i8, i8, i8, i32, i32, i32, i8, i32, i32, i32, i8, ptr, ptr, ptr, ptr }
%"class.icu_75::BasicTimeZone" = type { %"class.icu_75::TimeZone" }
%"class.icu_75::TimeZone" = type { %"class.icu_75::UObject", %"class.icu_75::UnicodeString" }
%"class.icu_75::UObject" = type { ptr }
%"class.icu_75::UnicodeString" = type { %"class.icu_75::Replaceable", %"union.icu_75::UnicodeString::StackBufferOrFields" }
%"class.icu_75::Replaceable" = type { %"class.icu_75::UObject" }
%"union.icu_75::UnicodeString::StackBufferOrFields" = type { %struct.anon.0, [32 x i8] }
%struct.anon.0 = type { i16, i32, i32, ptr }

; Function Attrs: mustprogress nounwind uwtable
define void @_ZN6icu_7514SimpleTimeZone20clearTransitionRulesEv(ptr noundef nonnull align 8 dereferenceable(160) %this) #0 align 2 {
entry:
  %this.addr = alloca ptr, align 8
  store ptr %this, ptr %this.addr, align 8
  %this1 = load ptr, ptr %this.addr, align 8
  %initialRule = getelementptr inbounds %"class.icu_75::SimpleTimeZone", ptr %this1, i32 0, i32 18
  store ptr null, ptr %initialRule, align 8
  %firstTransition = getelementptr inbounds %"class.icu_75::SimpleTimeZone", ptr %this1, i32 0, i32 19
  store ptr null, ptr %firstTransition, align 8
  %stdRule = getelementptr inbounds %"class.icu_75::SimpleTimeZone", ptr %this1, i32 0, i32 20
  store ptr null, ptr %stdRule, align 8
  %dstRule = getelementptr inbounds %"class.icu_75::SimpleTimeZone", ptr %this1, i32 0, i32 21
  store ptr null, ptr %dstRule, align 8
  %transitionRulesInitialized = getelementptr inbounds %"class.icu_75::SimpleTimeZone", ptr %this1, i32 0, i32 17
  store i8 0, ptr %transitionRulesInitialized, align 8
  ret void
}

; Function Attrs: mustprogress uwtable
define noundef nonnull align 8 dereferenceable(160) ptr @_ZN6icu_7514SimpleTimeZoneaSERKS0_(ptr noundef nonnull align 8 dereferenceable(160) %this, ptr noundef nonnull align 8 dereferenceable(160) %right) #1 align 2 {
entry:
  %this.addr = alloca ptr, align 8
  %right.addr = alloca ptr, align 8
  store ptr %this, ptr %this.addr, align 8
  store ptr %right, ptr %right.addr, align 8
  %this1 = load ptr, ptr %this.addr, align 8
  %0 = load ptr, ptr %right.addr, align 8
  %cmp = icmp ne ptr %this1, %0
  br i1 %cmp, label %if.then, label %if.end

if.then:                                          ; preds = %entry
  %1 = load ptr, ptr %right.addr, align 8
  %call = call noundef nonnull align 8 dereferenceable(72) ptr @_ZN6icu_758TimeZoneaSERKS0_(ptr noundef nonnull align 8 dereferenceable(72) %this1, ptr noundef nonnull align 8 dereferenceable(72) %1)
  %2 = load ptr, ptr %right.addr, align 8
  %rawOffset = getelementptr inbounds %"class.icu_75::SimpleTimeZone", ptr %2, i32 0, i32 12
  %3 = load i32, ptr %rawOffset, align 4
  %rawOffset2 = getelementptr inbounds %"class.icu_75::SimpleTimeZone", ptr %this1, i32 0, i32 12
  store i32 %3, ptr %rawOffset2, align 4
  %4 = load ptr, ptr %right.addr, align 8
  %startMonth = getelementptr inbounds %"class.icu_75::SimpleTimeZone", ptr %4, i32 0, i32 1
  %5 = load i8, ptr %startMonth, align 8
  %startMonth3 = getelementptr inbounds %"class.icu_75::SimpleTimeZone", ptr %this1, i32 0, i32 1
  store i8 %5, ptr %startMonth3, align 8
  %6 = load ptr, ptr %right.addr, align 8
  %startDay = getelementptr inbounds %"class.icu_75::SimpleTimeZone", ptr %6, i32 0, i32 2
  %7 = load i8, ptr %startDay, align 1
  %startDay4 = getelementptr inbounds %"class.icu_75::SimpleTimeZone", ptr %this1, i32 0, i32 2
  store i8 %7, ptr %startDay4, align 1
  %8 = load ptr, ptr %right.addr, align 8
  %startDayOfWeek = getelementptr inbounds %"class.icu_75::SimpleTimeZone", ptr %8, i32 0, i32 3
  %9 = load i8, ptr %startDayOfWeek, align 2
  %startDayOfWeek5 = getelementptr inbounds %"class.icu_75::SimpleTimeZone", ptr %this1, i32 0, i32 3
  store i8 %9, ptr %startDayOfWeek5, align 2
  %10 = load ptr, ptr %right.addr, align 8
  %startTime = getelementptr inbounds %"class.icu_75::SimpleTimeZone", ptr %10, i32 0, i32 4
  %11 = load i32, ptr %startTime, align 4
  %startTime6 = getelementptr inbounds %"class.icu_75::SimpleTimeZone", ptr %this1, i32 0, i32 4
  store i32 %11, ptr %startTime6, align 4
  %12 = load ptr, ptr %right.addr, align 8
  %startTimeMode = getelementptr inbounds %"class.icu_75::SimpleTimeZone", ptr %12, i32 0, i32 5
  %13 = load i32, ptr %startTimeMode, align 8
  %startTimeMode7 = getelementptr inbounds %"class.icu_75::SimpleTimeZone", ptr %this1, i32 0, i32 5
  store i32 %13, ptr %startTimeMode7, align 8
  %14 = load ptr, ptr %right.addr, align 8
  %startMode = getelementptr inbounds %"class.icu_75::SimpleTimeZone", ptr %14, i32 0, i32 14
  %15 = load i32, ptr %startMode, align 4
  %startMode8 = getelementptr inbounds %"class.icu_75::SimpleTimeZone", ptr %this1, i32 0, i32 14
  store i32 %15, ptr %startMode8, align 4
  %16 = load ptr, ptr %right.addr, align 8
  %endMonth = getelementptr inbounds %"class.icu_75::SimpleTimeZone", ptr %16, i32 0, i32 7
  %17 = load i8, ptr %endMonth, align 8
  %endMonth9 = getelementptr inbounds %"class.icu_75::SimpleTimeZone", ptr %this1, i32 0, i32 7
  store i8 %17, ptr %endMonth9, align 8
  %18 = load ptr, ptr %right.addr, align 8
  %endDay = getelementptr inbounds %"class.icu_75::SimpleTimeZone", ptr %18, i32 0, i32 8
  %19 = load i8, ptr %endDay, align 1
  %endDay10 = getelementptr inbounds %"class.icu_75::SimpleTimeZone", ptr %this1, i32 0, i32 8
  store i8 %19, ptr %endDay10, align 1
  %20 = load ptr, ptr %right.addr, align 8
  %endDayOfWeek = getelementptr inbounds %"class.icu_75::SimpleTimeZone", ptr %20, i32 0, i32 9
  %21 = load i8, ptr %endDayOfWeek, align 2
  %endDayOfWeek11 = getelementptr inbounds %"class.icu_75::SimpleTimeZone", ptr %this1, i32 0, i32 9
  store i8 %21, ptr %endDayOfWeek11, align 2
  %22 = load ptr, ptr %right.addr, align 8
  %endTime = getelementptr inbounds %"class.icu_75::SimpleTimeZone", ptr %22, i32 0, i32 10
  %23 = load i32, ptr %endTime, align 4
  %endTime12 = getelementptr inbounds %"class.icu_75::SimpleTimeZone", ptr %this1, i32 0, i32 10
  store i32 %23, ptr %endTime12, align 4
  %24 = load ptr, ptr %right.addr, align 8
  %endTimeMode = getelementptr inbounds %"class.icu_75::SimpleTimeZone", ptr %24, i32 0, i32 6
  %25 = load i32, ptr %endTimeMode, align 4
  %endTimeMode13 = getelementptr inbounds %"class.icu_75::SimpleTimeZone", ptr %this1, i32 0, i32 6
  store i32 %25, ptr %endTimeMode13, align 4
  %26 = load ptr, ptr %right.addr, align 8
  %endMode = getelementptr inbounds %"class.icu_75::SimpleTimeZone", ptr %26, i32 0, i32 15
  %27 = load i32, ptr %endMode, align 8
  %endMode14 = getelementptr inbounds %"class.icu_75::SimpleTimeZone", ptr %this1, i32 0, i32 15
  store i32 %27, ptr %endMode14, align 8
  %28 = load ptr, ptr %right.addr, align 8
  %startYear = getelementptr inbounds %"class.icu_75::SimpleTimeZone", ptr %28, i32 0, i32 11
  %29 = load i32, ptr %startYear, align 8
  %startYear15 = getelementptr inbounds %"class.icu_75::SimpleTimeZone", ptr %this1, i32 0, i32 11
  store i32 %29, ptr %startYear15, align 8
  %30 = load ptr, ptr %right.addr, align 8
  %dstSavings = getelementptr inbounds %"class.icu_75::SimpleTimeZone", ptr %30, i32 0, i32 16
  %31 = load i32, ptr %dstSavings, align 4
  %dstSavings16 = getelementptr inbounds %"class.icu_75::SimpleTimeZone", ptr %this1, i32 0, i32 16
  store i32 %31, ptr %dstSavings16, align 4
  %32 = load ptr, ptr %right.addr, align 8
  %useDaylight = getelementptr inbounds %"class.icu_75::SimpleTimeZone", ptr %32, i32 0, i32 13
  %33 = load i8, ptr %useDaylight, align 8
  %useDaylight17 = getelementptr inbounds %"class.icu_75::SimpleTimeZone", ptr %this1, i32 0, i32 13
  store i8 %33, ptr %useDaylight17, align 8
  call void @_ZN6icu_7514SimpleTimeZone20clearTransitionRulesEv(ptr noundef nonnull align 8 dereferenceable(160) %this1)
  br label %if.end

if.end:                                           ; preds = %if.then, %entry
  ret ptr %this1
}