; Function Attrs: mustprogress uwtable
define noundef nonnull align 8 dereferenceable(160) ptr @_ZN6icu_7514SimpleTimeZoneaSERKS0_(ptr noundef nonnull returned align 8 dereferenceable(160) %this, ptr noundef nonnull align 8 dereferenceable(160) %right) local_unnamed_addr #1 align 2 {
entry:
  %cmp.not = icmp eq ptr %this, %right
  br i1 %cmp.not, label %if.end, label %if.then

if.then:                                          ; preds = %entry
  %call = tail call noundef nonnull align 8 dereferenceable(72) ptr @_ZN6icu_758TimeZoneaSERKS0_(ptr noundef nonnull align 8 dereferenceable(72) %this, ptr noundef nonnull align 8 dereferenceable(72) %right)
  %rawOffset = getelementptr inbounds i8, ptr %right, i64 100
  %0 = load i32, ptr %rawOffset, align 4
  %rawOffset2 = getelementptr inbounds i8, ptr %this, i64 100
  store i32 %0, ptr %rawOffset2, align 4
  %startMonth = getelementptr inbounds i8, ptr %right, i64 72
  %1 = load i8, ptr %startMonth, align 8
  %startMonth3 = getelementptr inbounds i8, ptr %this, i64 72
  store i8 %1, ptr %startMonth3, align 8
  %startDay = getelementptr inbounds i8, ptr %right, i64 73
  %2 = load i8, ptr %startDay, align 1
  %startDay4 = getelementptr inbounds i8, ptr %this, i64 73
  store i8 %2, ptr %startDay4, align 1
  %startDayOfWeek = getelementptr inbounds i8, ptr %right, i64 74
  %3 = load i8, ptr %startDayOfWeek, align 2
  %startDayOfWeek5 = getelementptr inbounds i8, ptr %this, i64 74
  store i8 %3, ptr %startDayOfWeek5, align 2
  %startTime = getelementptr inbounds i8, ptr %right, i64 76
  %4 = load i32, ptr %startTime, align 4
  %startTime6 = getelementptr inbounds i8, ptr %this, i64 76
  store i32 %4, ptr %startTime6, align 4
  %startTimeMode = getelementptr inbounds i8, ptr %right, i64 80
  %5 = load i32, ptr %startTimeMode, align 8
  %startTimeMode7 = getelementptr inbounds i8, ptr %this, i64 80
  store i32 %5, ptr %startTimeMode7, align 8
  %startMode = getelementptr inbounds i8, ptr %right, i64 108
  %6 = load i32, ptr %startMode, align 4
  %startMode8 = getelementptr inbounds i8, ptr %this, i64 108
  store i32 %6, ptr %startMode8, align 4
  %endMonth = getelementptr inbounds i8, ptr %right, i64 88
  %7 = load i8, ptr %endMonth, align 8
  %endMonth9 = getelementptr inbounds i8, ptr %this, i64 88
  store i8 %7, ptr %endMonth9, align 8
  %endDay = getelementptr inbounds i8, ptr %right, i64 89
  %8 = load i8, ptr %endDay, align 1
  %endDay10 = getelementptr inbounds i8, ptr %this, i64 89
  store i8 %8, ptr %endDay10, align 1
  %endDayOfWeek = getelementptr inbounds i8, ptr %right, i64 90
  %9 = load i8, ptr %endDayOfWeek, align 2
  %endDayOfWeek11 = getelementptr inbounds i8, ptr %this, i64 90
  store i8 %9, ptr %endDayOfWeek11, align 2
  %endTime = getelementptr inbounds i8, ptr %right, i64 92
  %10 = load i32, ptr %endTime, align 4
  %endTime12 = getelementptr inbounds i8, ptr %this, i64 92
  store i32 %10, ptr %endTime12, align 4
  %endTimeMode = getelementptr inbounds i8, ptr %right, i64 84
  %11 = load i32, ptr %endTimeMode, align 4
  %endTimeMode13 = getelementptr inbounds i8, ptr %this, i64 84
  store i32 %11, ptr %endTimeMode13, align 4
  %endMode = getelementptr inbounds i8, ptr %right, i64 112
  %12 = load i32, ptr %endMode, align 8
  %endMode14 = getelementptr inbounds i8, ptr %this, i64 112
  store i32 %12, ptr %endMode14, align 8
  %startYear = getelementptr inbounds i8, ptr %right, i64 96
  %13 = load i32, ptr %startYear, align 8
  %startYear15 = getelementptr inbounds i8, ptr %this, i64 96
  store i32 %13, ptr %startYear15, align 8
  %dstSavings = getelementptr inbounds i8, ptr %right, i64 116
  %14 = load i32, ptr %dstSavings, align 4
  %dstSavings16 = getelementptr inbounds i8, ptr %this, i64 116
  store i32 %14, ptr %dstSavings16, align 4
  %useDaylight = getelementptr inbounds i8, ptr %right, i64 104
  %15 = load i8, ptr %useDaylight, align 8
  %useDaylight17 = getelementptr inbounds i8, ptr %this, i64 104
  store i8 %15, ptr %useDaylight17, align 8
  %initialRule.i = getelementptr inbounds i8, ptr %this, i64 128
  %transitionRulesInitialized.i = getelementptr inbounds i8, ptr %this, i64 120
  store i8 0, ptr %transitionRulesInitialized.i, align 8
  tail call void @llvm.memset.p0.i64(ptr noundef nonnull align 8 dereferenceable(32) %initialRule.i, i8 0, i64 32, i1 false)
  br label %if.end

if.end:                                           ; preds = %if.then, %entry
  ret ptr %this
}